(dp0
S'METTS MARK'
p1
(dp2
S'salary'
p3
I365788
sS'to_messages'
p4
I807
sS'deferral_payments'
p5
S'NaN'
p6
sS'total_payments'
p7
I1061827
sS'loan_advances'
p8
g6
sS'bonus'
p9
I600000
sS'email_address'
p10
S'mark.metts@enron.com'
p11
sS'restricted_stock_deferred'
p12
g6
sS'total_stock_value'
p13
I585062
sS'shared_receipt_with_poi'
p14
I702
sS'long_term_incentive'
p15
g6
sS'exercised_stock_options'
p16
g6
sS'from_messages'
p17
I29
sS'other'
p18
I1740
sS'from_poi_to_this_person'
p19
I38
sS'from_this_person_to_poi'
p20
I1
sS'poi'
p21
I00
sS'deferred_income'
p22
g6
sS'expenses'
p23
I94299
sS'restricted_stock'
p24
I585062
sS'director_fees'
p25
g6
ssS'ELLIOTT STEVEN'
p26
(dp27
g3
I170941
sg4
g6
sg5
g6
sg7
I211725
sg8
g6
sg9
I350000
sg10
S'steven.elliott@enron.com'
p28
sg12
g6
sg13
I6678735
sg14
g6
sg15
g6
sg16
I4890344
sg17
g6
sg18
I12961
sg19
g6
sg20
g6
sg21
I00
sg22
I-400729
sg23
I78552
sg24
I1788391
sg25
g6
ssS'DETMERING TIMOTHY'
p29
(dp30
g3
I210500
sg4
g6
sg5
I875307
sg7
I1204583
sg8
g6
sg9
I425000
sg10
S'timothy.detmering@enron.com'
p31
sg12
I-315068
sg13
I2027865
sg14
g6
sg15
I415657
sg16
I2027865
sg17
g6
sg18
I1105
sg19
g6
sg20
g6
sg21
I00
sg22
I-775241
sg23
I52255
sg24
I315068
sg25
g6
ssS'MCMAHON JEFFREY'
p32
(dp33
g3
I370448
sg4
I2355
sg5
g6
sg7
I4099771
sg8
g6
sg9
I2600000
sg10
S'jeffrey.mcmahon@enron.com'
p34
sg12
g6
sg13
I1662855
sg14
I2228
sg15
I694862
sg16
I1104054
sg17
I48
sg18
I297353
sg19
I58
sg20
I26
sg21
I00
sg22
g6
sg23
I137108
sg24
I558801
sg25
g6
ssS'LINDHOLM TOD'
p35
(dp36
g3
I236457
sg4
g6
sg5
I204075
sg7
I875889
sg8
g6
sg9
I200000
sg10
S'tod.lindholm@enron.com'
p37
sg12
g6
sg13
I3064208
sg14
g6
sg15
I175000
sg16
I2549361
sg17
g6
sg18
I2630
sg19
g6
sg20
g6
sg21
I00
sg22
g6
sg23
I57727
sg24
I514847
sg25
g6
ssS'FUGH JOHN'
p38
(dp39
g3
g6
sg4
g6
sg5
I50591
sg7
I50591
sg8
g6
sg9
g6
sg10
g6
sg12
g6
sg13
I176378
sg14
g6
sg15
g6
sg16
I176378
sg17
g6
sg18
g6
sg19
g6
sg20
g6
sg21
I00
sg22
g6
sg23
g6
sg24
g6
sg25
g6
ssS'HAYSLETT RODERICK'
p40
(dp41
g3
g6
sg4
I2649
sg5
g6
sg7
g6
sg8
g6
sg9
g6
sg10
S'rod.hayslett@enron.com'
p42
sg12
g6
sg13
I346663
sg14
I571
sg15
g6
sg16
g6
sg17
I1061
sg18
g6
sg19
I35
sg20
I38
sg21
I00
sg22
g6
sg23
g6
sg24
I346663
sg25
g6
ssS'DIETRICH JANET'
p43
(dp44
g3
I250100
sg4
I2572
sg5
g6
sg7
I1410464
sg8
g6
sg9
I600000
sg10
S'janet.dietrich@enron.com'
p45
sg12
g6
sg13
I1865087
sg14
I1902
sg15
I556416
sg16
I1550019
sg17
I63
sg18
I473
sg19
I305
sg20
I14
sg21
I00
sg22
g6
sg23
I3475
sg24
I315068
sg25
g6
ssS'SUNDE MARTIN'
p46
(dp47
g3
I257486
sg4
I2647
sg5
g6
sg7
I1545059
sg8
g6
sg9
I700000
sg10
S'marty.sunde@enron.com'
p48
sg12
g6
sg13
I698920
sg14
I2565
sg15
I476451
sg16
g6
sg17
I38
sg18
I111122
sg19
I37
sg20
I13
sg21
I00
sg22
g6
sg23
g6
sg24
I698920
sg25
g6
ssS'FASTOW ANDREW'
p49
(dp50
g3
I440698
sg4
g6
sg5
g6
sg7
I2424083
sg8
g6
sg9
I1300000
sg10
S'andrew.fastow@enron.com'
p51
sg12
g6
sg13
I1794412
sg14
g6
sg15
I1736055
sg16
g6
sg17
g6
sg18
I277464
sg19
g6
sg20
g6
sg21
I01
sg22
I-1386055
sg23
I55921
sg24
I1794412
sg25
g6
ssS'COLWELL WESLEY'
p52
(dp53
g3
I288542
sg4
I1758
sg5
I27610
sg7
I1490344
sg8
g6
sg9
I1200000
sg10
S'wes.colwell@enron.com'
p54
sg12
g6
sg13
I698242
sg14
I1132
sg15
g6
sg16
g6
sg17
I40
sg18
I101740
sg19
I240
sg20
I11
sg21
I01
sg22
I-144062
sg23
I16514
sg24
I698242
sg25
g6
ssS'MORDAUNT KRISTINA'
p55
(dp56
g3
I267093
sg4
g6
sg5
g6
sg7
I628522
sg8
g6
sg9
I325000
sg10
S'kristina.mordaunt@enron.com'
p57
sg12
g6
sg13
I208510
sg14
g6
sg15
g6
sg16
g6
sg17
g6
sg18
I1411
sg19
g6
sg20
g6
sg21
I00
sg22
g6
sg23
I35018
sg24
I208510
sg25
g6
ssS'BANNANTINE JAMES'
p58
(dp59
g3
I477
sg4
I566
sg5
g6
sg7
I916197
sg8
g6
sg9
g6
sg10
S'james.bannantine@enron.com'
p60
sg12
I-560222
sg13
I5243487
sg14
I465
sg15
g6
sg16
I4046157
sg17
I29
sg18
I864523
sg19
I39
sg20
I0
sg21
I00
sg22
I-5104
sg23
I56301
sg24
I1757552
sg25
g6
ssS'GAHN ROBERT'
p61
(dp62
g3
I192008
sg4
g6
sg5
I73122
sg7
I900585
sg8
g6
sg9
I509870
sg10
g6
sg12
g6
sg13
I318607
sg14
g6
sg15
g6
sg16
I83237
sg17
g6
sg18
I76547
sg19
g6
sg20
g6
sg21
I00
sg22
I-1042
sg23
I50080
sg24
I235370
sg25
g6
ssS'FALLON JAMES'
p63
(dp64
g3
I304588
sg4
I1755
sg5
g6
sg7
I3676340
sg8
g6
sg9
I2500000
sg10
S'jim.fallon@enron.com'
p65
sg12
g6
sg13
I2332399
sg14
I1604
sg15
I374347
sg16
I940257
sg17
I75
sg18
I401481
sg19
I42
sg20
I37
sg21
I00
sg22
g6
sg23
I95924
sg24
I1392142
sg25
g6
ssS'KITCHEN LOUISE'
p66
(dp67
g3
I271442
sg4
I8305
sg5
g6
sg7
I3471141
sg8
g6
sg9
I3100000
sg10
S'louise.kitchen@enron.com'
p68
sg12
g6
sg13
I547143
sg14
I3669
sg15
g6
sg16
I81042
sg17
I1728
sg18
I93925
sg19
I251
sg20
I194
sg21
I00
sg22
g6
sg23
I5774
sg24
I466101
sg25
g6
ssS'CHAN RONNIE'
p69
(dp70
g3
g6
sg4
g6
sg5
g6
sg7
g6
sg8
g6
sg9
g6
sg10
g6
sg12
I-32460
sg13
g6
sg14
g6
sg15
g6
sg16
g6
sg17
g6
sg18
g6
sg19
g6
sg20
g6
sg21
I00
sg22
I-98784
sg23
g6
sg24
I32460
sg25
I98784
ssS'BUY RICHARD'
p71
(dp72
g3
I330546
sg4
I3523
sg5
I649584
sg7
I2355702
sg8
g6
sg9
I900000
sg10
S'rick.buy@enron.com'
p73
sg12
g6
sg13
I3444470
sg14
I2333
sg15
I769862
sg16
I2542813
sg17
I1053
sg18
I400572
sg19
I156
sg20
I71
sg21
I00
sg22
I-694862
sg23
g6
sg24
I901657
sg25
g6
ssS'BAY FRANKLIN'
p74
(dp75
g3
I239671
sg4
g6
sg5
I260455
sg7
I827696
sg8
g6
sg9
I400000
sg10
S'frank.bay@enron.com'
p76
sg12
I-82782
sg13
I63014
sg14
g6
sg15
g6
sg16
g6
sg17
g6
sg18
I69
sg19
g6
sg20
g6
sg21
I00
sg22
I-201641
sg23
I129142
sg24
I145796
sg25
g6
ssS'WODRASKA JOHN'
p77
(dp78
g3
g6
sg4
g6
sg5
g6
sg7
I189583
sg8
g6
sg9
g6
sg10
S'john.wodraska@enron.com'
p79
sg12
g6
sg13
g6
sg14
g6
sg15
g6
sg16
g6
sg17
g6
sg18
I189583
sg19
g6
sg20
g6
sg21
I00
sg22
g6
sg23
g6
sg24
g6
sg25
g6
ssS'DURAN WILLIAM'
p80
(dp81
g3
I210692
sg4
I904
sg5
g6
sg7
I2093263
sg8
g6
sg9
I750000
sg10
S'w.duran@enron.com'
p82
sg12
g6
sg13
I1640910
sg14
I599
sg15
I1105218
sg16
I1451869
sg17
I12
sg18
I1568
sg19
I106
sg20
I3
sg21
I00
sg22
g6
sg23
I25785
sg24
I189041
sg25
g6
ssS'OLSON CINDY'
p83
(dp84
g3
I329078
sg4
I1184
sg5
I77716
sg7
I1321557
sg8
g6
sg9
I750000
sg10
S'cindy.olson@enron.com'
p85
sg12
g6
sg13
I2606763
sg14
I856
sg15
I100000
sg16
I1637034
sg17
I52
sg18
I972
sg19
I20
sg20
I15
sg21
I00
sg22
g6
sg23
I63791
sg24
I969729
sg25
g6
ssS'BAXTER JOHN'
p86
(dp87
g3
I267102
sg4
g6
sg5
I1295738
sg7
I5634343
sg8
g6
sg9
I1200000
sg10
g6
sg12
g6
sg13
I10623258
sg14
g6
sg15
I1586055
sg16
I6680544
sg17
g6
sg18
I2660303
sg19
g6
sg20
g6
sg21
I00
sg22
I-1386055
sg23
I11200
sg24
I3942714
sg25
g6
ssS'HICKERSON GARY'
p88
(dp89
g3
I211788
sg4
I1320
sg5
g6
sg7
I2081796
sg8
g6
sg9
I1700000
sg10
S'gary.hickerson@enron.com'
p90
sg12
g6
sg13
I441096
sg14
I900
sg15
I69223
sg16
g6
sg17
I27
sg18
I1936
sg19
I40
sg20
I1
sg21
I00
sg22
g6
sg23
I98849
sg24
I441096
sg25
g6
ssS'BIBI PHILIPPE'
p91
(dp92
g3
I213625
sg4
I1607
sg5
g6
sg7
I2047593
sg8
g6
sg9
I1000000
sg10
S'philippe.bibi@enron.com'
p93
sg12
g6
sg13
I1843816
sg14
I1336
sg15
I369721
sg16
I1465734
sg17
I40
sg18
I425688
sg19
I23
sg20
I8
sg21
I00
sg22
g6
sg23
I38559
sg24
I378082
sg25
g6
ssS'LAY KENNETH'
p94
(dp95
g3
I1072321
sg4
I4273
sg5
I202911
sg7
I103559793
sg8
I81525000
sg9
I7000000
sg10
S'kenneth.lay@enron.com'
p96
sg12
g6
sg13
I49110078
sg14
I2411
sg15
I3600000
sg16
I34348384
sg17
I36
sg18
I10359729
sg19
I123
sg20
I16
sg21
I01
sg22
I-300000
sg23
I99832
sg24
I14761694
sg25
g6
ssS'MEYER ROCKFORD'
p97
(dp98
g3
g6
sg4
I232
sg5
I1848227
sg7
I1848227
sg8
g6
sg9
g6
sg10
S'rockford.meyer@enron.com'
p99
sg12
g6
sg13
I955873
sg14
I22
sg15
g6
sg16
I493489
sg17
I28
sg18
g6
sg19
I0
sg20
I0
sg21
I00
sg22
g6
sg23
g6
sg24
I462384
sg25
g6
ssS'WASAFF GEORGE'
p100
(dp101
g3
I259996
sg4
I400
sg5
I831299
sg7
I1034395
sg8
g6
sg9
I325000
sg10
S'george.wasaff@enron.com'
p102
sg12
g6
sg13
I2056427
sg14
I337
sg15
I200000
sg16
I1668260
sg17
I30
sg18
I1425
sg19
I22
sg20
I7
sg21
I00
sg22
I-583325
sg23
g6
sg24
I388167
sg25
g6
ssS'WHITE THOMAS'
p103
(dp104
g3
I317543
sg4
g6
sg5
g6
sg7
I1934359
sg8
g6
sg9
I450000
sg10
S'thomas.white@enron.com'
p105
sg12
g6
sg13
I15144123
sg14
g6
sg15
g6
sg16
I1297049
sg17
g6
sg18
I1085463
sg19
g6
sg20
g6
sg21
I00
sg22
g6
sg23
I81353
sg24
I13847074
sg25
g6
ssS'CAUSEY RICHARD'
p106
(dp107
g3
I415189
sg4
I1892
sg5
g6
sg7
I1868758
sg8
g6
sg9
I1000000
sg10
S'richard.causey@enron.com'
p108
sg12
g6
sg13
I2502063
sg14
I1585
sg15
I350000
sg16
g6
sg17
I49
sg18
I307895
sg19
I58
sg20
I12
sg21
I01
sg22
I-235000
sg23
I30674
sg24
I2502063
sg25
g6
ssS'HERMANN ROBERT'
p109
(dp110
g3
I262663
sg4
g6
sg5
g6
sg7
I1297461
sg8
g6
sg9
I700000
sg10
S'robert.hermann@enron.com'
p111
sg12
g6
sg13
I668132
sg14
g6
sg15
I150000
sg16
I187500
sg17
g6
sg18
I416441
sg19
g6
sg20
g6
sg21
I00
sg22
I-280000
sg23
I48357
sg24
I480632
sg25
g6
ssS'MENDELSOHN JOHN'
p112
(dp113
g3
g6
sg4
g6
sg5
g6
sg7
I148
sg8
g6
sg9
g6
sg10
g6
sg12
g6
sg13
g6
sg14
g6
sg15
g6
sg16
g6
sg17
g6
sg18
g6
sg19
g6
sg20
g6
sg21
I00
sg22
I-103750
sg23
I148
sg24
g6
sg25
I103750
ssS'IZZO LAWRENCE'
p114
(dp115
g3
I85274
sg4
I496
sg5
g6
sg7
I1979596
sg8
g6
sg9
g6
sg10
S'larry.izzo@enron.com'
p116
sg12
g6
sg13
I5819980
sg14
I437
sg15
I312500
sg16
I2165172
sg17
I19
sg18
I1553729
sg19
I28
sg20
I5
sg21
I00
sg22
g6
sg23
I28093
sg24
I3654808
sg25
g6
ssS'DELAINEY DAVID'
p117
(dp118
g3
I365163
sg4
I3093
sg5
g6
sg7
I4747979
sg8
g6
sg9
I3000000
sg10
S'david.delainey@enron.com'
p119
sg12
g6
sg13
I3614261
sg14
I2097
sg15
I1294981
sg16
I2291113
sg17
I3069
sg18
I1661
sg19
I66
sg20
I609
sg21
I01
sg22
g6
sg23
I86174
sg24
I1323148
sg25
g6
ssS'SHERRICK JEFFREY'
p120
(dp121
g3
g6
sg4
I613
sg5
g6
sg7
g6
sg8
g6
sg9
g6
sg10
S'jeffrey.sherrick@enron.com'
p122
sg12
g6
sg13
I1832468
sg14
I583
sg15
g6
sg16
I1426469
sg17
I25
sg18
g6
sg19
I39
sg20
I18
sg21
I00
sg22
g6
sg23
g6
sg24
I405999
sg25
g6
ssS'GATHMANN WILLIAM'
p123
(dp124
g3
g6
sg4
g6
sg5
g6
sg7
g6
sg8
g6
sg9
g6
sg10
g6
sg12
I-72419
sg13
I1945360
sg14
g6
sg15
g6
sg16
I1753766
sg17
g6
sg18
g6
sg19
g6
sg20
g6
sg21
I00
sg22
g6
sg23
g6
sg24
I264013
sg25
g6
ssS'BERGSIEKER RICHARD'
p125
(dp126
g3
I187922
sg4
I383
sg5
g6
sg7
I618850
sg8
g6
sg9
I250000
sg10
S'rick.bergsieker@enron.com'
p127
sg12
g6
sg13
I659249
sg14
I233
sg15
I180250
sg16
g6
sg17
I59
sg18
I427316
sg19
I4
sg20
I0
sg21
I00
sg22
I-485813
sg23
I59175
sg24
I659249
sg25
g6
ssS'SHAPIRO RICHARD'
p128
(dp129
g3
I269076
sg4
I15149
sg5
g6
sg7
I1057548
sg8
g6
sg9
I650000
sg10
S'richard.shapiro@enron.com'
p130
sg12
g6
sg13
I987001
sg14
I4527
sg15
g6
sg16
I607837
sg17
I1215
sg18
I705
sg19
I74
sg20
I65
sg21
I00
sg22
g6
sg23
I137767
sg24
I379164
sg25
g6
ssS'PAI LOU'
p131
(dp132
g3
I261879
sg4
g6
sg5
g6
sg7
I3123383
sg8
g6
sg9
I1000000
sg10
S'lou.pai@enron.com'
p133
sg12
g6
sg13
I23817930
sg14
g6
sg15
g6
sg16
I15364167
sg17
g6
sg18
I1829457
sg19
g6
sg20
g6
sg21
I00
sg22
g6
sg23
I32047
sg24
I8453763
sg25
g6
ssS'LEWIS RICHARD'
p134
(dp135
g3
g6
sg4
I952
sg5
g6
sg7
g6
sg8
g6
sg9
g6
sg10
S'richard.lewis@enron.com'
p136
sg12
g6
sg13
I850477
sg14
I739
sg15
g6
sg16
I850477
sg17
I26
sg18
g6
sg19
I10
sg20
I0
sg21
I00
sg22
g6
sg23
g6
sg24
g6
sg25
g6
ssS'PEREIRA PAULO FERRAZ'
p137
(dp138
g3
g6
sg4
g6
sg5
g6
sg7
I27942
sg8
g6
sg9
g6
sg10
g6
sg12
g6
sg13
g6
sg14
g6
sg15
g6
sg16
g6
sg17
g6
sg18
g6
sg19
g6
sg20
g6
sg21
I00
sg22
I-101250
sg23
I27942
sg24
g6
sg25
I101250
ssS'WHALEY DAVID'
p139
(dp140
g3
g6
sg4
g6
sg5
g6
sg7
g6
sg8
g6
sg9
g6
sg10
g6
sg12
g6
sg13
I98718
sg14
g6
sg15
g6
sg16
I98718
sg17
g6
sg18
g6
sg19
g6
sg20
g6
sg21
I00
sg22
g6
sg23
g6
sg24
g6
sg25
g6
ssS'DUNCAN JOHN'
p141
(dp142
g3
g6
sg4
g6
sg5
g6
sg7
I77492
sg8
g6
sg9
g6
sg10
g6
sg12
g6
sg13
I371750
sg14
g6
sg15
g6
sg16
I371750
sg17
g6
sg18
g6
sg19
g6
sg20
g6
sg21
I00
sg22
I-25000
sg23
g6
sg24
g6
sg25
I102492
ssS'CHRISTODOULOU DIOMEDES'
p143
(dp144
g3
g6
sg4
g6
sg5
g6
sg7
g6
sg8
g6
sg9
g6
sg10
S'diomedes.christodoulou@enron.com'
p145
sg12
g6
sg13
I6077885
sg14
g6
sg15
g6
sg16
I5127155
sg17
g6
sg18
g6
sg19
g6
sg20
g6
sg21
I00
sg22
g6
sg23
g6
sg24
I950730
sg25
g6
ssS'BERBERIAN DAVID'
p146
(dp147
g3
I216582
sg4
g6
sg5
g6
sg7
I228474
sg8
g6
sg9
g6
sg10
S'david.berberian@enron.com'
p148
sg12
g6
sg13
I2493616
sg14
g6
sg15
g6
sg16
I1624396
sg17
g6
sg18
g6
sg19
g6
sg20
g6
sg21
I00
sg22
g6
sg23
I11892
sg24
I869220
sg25
g6
ssS'GIBBS DANA'
p149
(dp150
g3
g6
sg4
I169
sg5
I504610
sg7
I966522
sg8
g6
sg9
g6
sg10
S'dana.gibbs@enron.com'
p151
sg12
g6
sg13
I2218275
sg14
I23
sg15
I461912
sg16
I2218275
sg17
I12
sg18
g6
sg19
I0
sg20
I0
sg21
I00
sg22
g6
sg23
g6
sg24
g6
sg25
g6
ssS'HUMPHREY GENE'
p152
(dp153
g3
I130724
sg4
I128
sg5
I2964506
sg7
I3100224
sg8
g6
sg9
g6
sg10
S'gene.humphrey@enron.com'
p154
sg12
g6
sg13
I2282768
sg14
I119
sg15
g6
sg16
I2282768
sg17
I17
sg18
g6
sg19
I10
sg20
I17
sg21
I00
sg22
g6
sg23
I4994
sg24
g6
sg25
g6
ssS'WAKEHAM JOHN'
p155
(dp156
g3
g6
sg4
g6
sg5
g6
sg7
I213071
sg8
g6
sg9
g6
sg10
g6
sg12
g6
sg13
g6
sg14
g6
sg15
g6
sg16
g6
sg17
g6
sg18
g6
sg19
g6
sg20
g6
sg21
I00
sg22
g6
sg23
I103773
sg24
g6
sg25
I109298
ssS'KOPPER MICHAEL'
p157
(dp158
g3
I224305
sg4
g6
sg5
g6
sg7
I2652612
sg8
g6
sg9
I800000
sg10
S'michael.kopper@enron.com'
p159
sg12
g6
sg13
I985032
sg14
g6
sg15
I602671
sg16
g6
sg17
g6
sg18
I907502
sg19
g6
sg20
g6
sg21
I01
sg22
g6
sg23
I118134
sg24
I985032
sg25
g6
ssS'POWERS WILLIAM'
p160
(dp161
g3
g6
sg4
I653
sg5
g6
sg7
g6
sg8
g6
sg9
g6
sg10
S'ken.powers@enron.com'
p162
sg12
g6
sg13
g6
sg14
I12
sg15
g6
sg16
g6
sg17
I26
sg18
g6
sg19
I0
sg20
I0
sg21
I00
sg22
I-17500
sg23
g6
sg24
g6
sg25
I17500
ssS'GOLD JOSEPH'
p163
(dp164
g3
I272880
sg4
g6
sg5
g6
sg7
I2146973
sg8
g6
sg9
I750000
sg10
S'joe.gold@enron.com'
p165
sg12
g6
sg13
I877611
sg14
g6
sg15
I304805
sg16
I436515
sg17
g6
sg18
I819288
sg19
g6
sg20
g6
sg21
I00
sg22
g6
sg23
g6
sg24
I441096
sg25
g6
ssS'MCCONNELL MICHAEL'
p166
(dp167
g3
I365038
sg4
I3329
sg5
g6
sg7
I2101364
sg8
g6
sg9
I1100000
sg10
S'mike.mcconnell@enron.com'
p168
sg12
g6
sg13
I3101279
sg14
I2189
sg15
I554422
sg16
I1623010
sg17
I2742
sg18
I540
sg19
I92
sg20
I194
sg21
I00
sg22
g6
sg23
I81364
sg24
I1478269
sg25
g6
ssS'UMANOFF ADAM'
p169
(dp170
g3
I288589
sg4
I111
sg5
g6
sg7
I1130461
sg8
g6
sg9
I788750
sg10
S'adam.umanoff@enron.com'
p171
sg12
g6
sg13
g6
sg14
I41
sg15
g6
sg16
g6
sg17
I18
sg18
g6
sg19
I12
sg20
I0
sg21
I00
sg22
g6
sg23
I53122
sg24
g6
sg25
g6
ssS'CUMBERLAND MICHAEL'
p172
(dp173
g3
I184899
sg4
g6
sg5
g6
sg7
I807956
sg8
g6
sg9
I325000
sg10
g6
sg12
g6
sg13
I207940
sg14
g6
sg15
I275000
sg16
g6
sg17
g6
sg18
I713
sg19
g6
sg20
g6
sg21
I00
sg22
g6
sg23
I22344
sg24
I207940
sg25
g6
ssS'FREVERT MARK'
p174
(dp175
g3
I1060932
sg4
I3275
sg5
I6426990
sg7
I17252530
sg8
I2000000
sg9
I2000000
sg10
S'mark.frevert@enron.com'
p176
sg12
g6
sg13
I14622185
sg14
I2979
sg15
I1617011
sg16
I10433518
sg17
I21
sg18
I7427621
sg19
I242
sg20
I6
sg21
I00
sg22
I-3367011
sg23
I86987
sg24
I4188667
sg25
g6
ssS'SHELBY REX'
p177
(dp178
g3
I211844
sg4
I225
sg5
g6
sg7
I2003885
sg8
g6
sg9
I200000
sg10
S'rex.shelby@enron.com'
p179
sg12
g6
sg13
I2493616
sg14
I91
sg15
g6
sg16
I1624396
sg17
I39
sg18
I1573324
sg19
I13
sg20
I14
sg21
I01
sg22
I-4167
sg23
I22884
sg24
I869220
sg25
g6
ssS'MURRAY JULIA'
p180
(dp181
g3
I229284
sg4
I2192
sg5
g6
sg7
I812194
sg8
g6
sg9
I400000
sg10
S'julia.murray@enron.com'
p182
sg12
g6
sg13
I597461
sg14
I395
sg15
I125000
sg16
I400478
sg17
I45
sg18
I330
sg19
I11
sg20
I2
sg21
I00
sg22
g6
sg23
I57580
sg24
I196983
sg25
g6
ssS'LAVORATO JOHN'
p183
(dp184
g3
I339288
sg4
I7259
sg5
g6
sg7
I10425757
sg8
g6
sg9
I8000000
sg10
S'john.lavorato@enron.com'
p185
sg12
g6
sg13
I5167144
sg14
I3962
sg15
I2035380
sg16
I4158995
sg17
I2585
sg18
I1552
sg19
I528
sg20
I411
sg21
I00
sg22
g6
sg23
I49537
sg24
I1008149
sg25
g6
ssS'LEMAISTRE CHARLES'
p186
(dp187
g3
g6
sg4
g6
sg5
g6
sg7
I87492
sg8
g6
sg9
g6
sg10
g6
sg12
g6
sg13
I412878
sg14
g6
sg15
g6
sg16
I412878
sg17
g6
sg18
g6
sg19
g6
sg20
g6
sg21
I00
sg22
I-25000
sg23
g6
sg24
g6
sg25
I112492
ssS'MARTIN AMANDA'
p188
(dp189
g3
I349487
sg4
I1522
sg5
I85430
sg7
I8407016
sg8
g6
sg9
g6
sg10
S'a..martin@enron.com'
p190
sg12
g6
sg13
I2070306
sg14
I477
sg15
I5145434
sg16
I2070306
sg17
I230
sg18
I2818454
sg19
I8
sg20
I0
sg21
I00
sg22
g6
sg23
I8211
sg24
g6
sg25
g6
ssS'ALLEN PHILLIP'
p191
(dp192
g3
I201955
sg4
I2902
sg5
I2869717
sg7
I4484442
sg8
g6
sg9
I4175000
sg10
S'phillip.allen@enron.com'
p193
sg12
I-126027
sg13
I1729541
sg14
I1407
sg15
I304805
sg16
I1729541
sg17
I2195
sg18
I152
sg19
I47
sg20
I65
sg21
I00
sg22
I-3081055
sg23
I13868
sg24
I126027
sg25
g6
ssS'SHARP VICTORIA'
p194
(dp195
g3
I248146
sg4
I3136
sg5
I187469
sg7
I1576511
sg8
g6
sg9
I600000
sg10
S'vicki.sharp@enron.com'
p196
sg12
g6
sg13
I494136
sg14
I2477
sg15
I422158
sg16
I281073
sg17
I136
sg18
I2401
sg19
I24
sg20
I6
sg21
I00
sg22
g6
sg23
I116337
sg24
I213063
sg25
g6
ssS'WALTERS GARETH'
p197
(dp198
g3
g6
sg4
g6
sg5
I53625
sg7
I87410
sg8
g6
sg9
g6
sg10
g6
sg12
g6
sg13
I1030329
sg14
g6
sg15
g6
sg16
I1030329
sg17
g6
sg18
g6
sg19
g6
sg20
g6
sg21
I00
sg22
g6
sg23
I33785
sg24
g6
sg25
g6
ssS'LOWRY CHARLES'
p199
(dp200
g3
g6
sg4
g6
sg5
g6
sg7
g6
sg8
g6
sg9
g6
sg10
g6
sg12
I-153686
sg13
I372205
sg14
g6
sg15
g6
sg16
I372205
sg17
g6
sg18
g6
sg19
g6
sg20
g6
sg21
I00
sg22
g6
sg23
g6
sg24
I153686
sg25
g6
ssS'JACKSON CHARLENE'
p201
(dp202
g3
I288558
sg4
I258
sg5
g6
sg7
I551174
sg8
g6
sg9
I250000
sg10
S'charlene.jackson@enron.com'
p203
sg12
g6
sg13
I725735
sg14
I117
sg15
g6
sg16
I185063
sg17
I56
sg18
I2435
sg19
I25
sg20
I19
sg21
I00
sg22
g6
sg23
I10181
sg24
I540672
sg25
g6
ssS'OVERDYKE JERE'
p204
(dp205
g3
I94941
sg4
g6
sg5
g6
sg7
I249787
sg8
g6
sg9
g6
sg10
S'jere.overdyke@enron.com'
p206
sg12
g6
sg13
I7307594
sg14
g6
sg15
I135836
sg16
I5266578
sg17
g6
sg18
I176
sg19
g6
sg20
g6
sg21
I00
sg22
g6
sg23
I18834
sg24
I2041016
sg25
g6
ssS'TAYLOR MITCHELL'
p207
(dp208
g3
I265214
sg4
I533
sg5
I227449
sg7
I1092663
sg8
g6
sg9
I600000
sg10
S'mitchell.taylor@enron.com'
p209
sg12
g6
sg13
I3745048
sg14
I300
sg15
g6
sg16
I3181250
sg17
I29
sg18
g6
sg19
I0
sg20
I0
sg21
I00
sg22
g6
sg23
g6
sg24
I563798
sg25
g6
ssS'WHALLEY LAWRENCE'
p210
(dp211
g3
I510364
sg4
I6019
sg5
g6
sg7
I4677574
sg8
g6
sg9
I3000000
sg10
S'greg.whalley@enron.com'
p212
sg12
g6
sg13
I6079137
sg14
I3920
sg15
I808346
sg16
I3282960
sg17
I556
sg18
I301026
sg19
I186
sg20
I24
sg21
I00
sg22
g6
sg23
I57838
sg24
I2796177
sg25
g6
ssS'PIRO JIM'
p213
(dp214
g3
g6
sg4
I58
sg5
g6
sg7
g6
sg8
g6
sg9
g6
sg10
S'jim.piro@enron.com'
p215
sg12
g6
sg13
I47304
sg14
I3
sg15
g6
sg16
g6
sg17
I16
sg18
g6
sg19
I0
sg20
I1
sg21
I00
sg22
g6
sg23
g6
sg24
I47304
sg25
g6
ssS'PICKERING MARK'
p216
(dp217
g3
I655037
sg4
I898
sg5
g6
sg7
I1386690
sg8
I400000
sg9
I300000
sg10
S'mark.pickering@enron.com'
p218
sg12
g6
sg13
I28798
sg14
I728
sg15
g6
sg16
I28798
sg17
I67
sg18
g6
sg19
I7
sg20
I0
sg21
I00
sg22
g6
sg23
I31653
sg24
g6
sg25
g6
ssS'WALLS ROBERT'
p219
(dp220
g3
I357091
sg4
I671
sg5
g6
sg7
I1798780
sg8
g6
sg9
I850000
sg10
S'rob.walls@enron.com'
p221
sg12
g6
sg13
I5898997
sg14
I215
sg15
I540751
sg16
I4346544
sg17
I146
sg18
I2
sg19
I17
sg20
I0
sg21
I00
sg22
g6
sg23
I50936
sg24
I1552453
sg25
g6
ssS'SULLIVAN-SHAKLOVITZ COLLEEN'
p222
(dp223
g3
I162779
sg4
g6
sg5
I181993
sg7
I999356
sg8
g6
sg9
I100000
sg10
g6
sg12
g6
sg13
I1362375
sg14
g6
sg15
I554422
sg16
I1362375
sg17
g6
sg18
I162
sg19
g6
sg20
g6
sg21
I00
sg22
g6
sg23
g6
sg24
g6
sg25
g6
ssS'WROBEL BRUCE'
p224
(dp225
g3
g6
sg4
g6
sg5
g6
sg7
g6
sg8
g6
sg9
g6
sg10
g6
sg12
g6
sg13
I139130
sg14
g6
sg15
g6
sg16
I139130
sg17
g6
sg18
g6
sg19
g6
sg20
g6
sg21
I00
sg22
g6
sg23
g6
sg24
g6
sg25
g6
ssS'FOY JOE'
p226
(dp227
g3
g6
sg4
I57
sg5
I181755
sg7
I181755
sg8
g6
sg9
g6
sg10
S'tracy.foy@enron.com'
p228
sg12
g6
sg13
I343434
sg14
I2
sg15
g6
sg16
I343434
sg17
I13
sg18
g6
sg19
I0
sg20
I0
sg21
I00
sg22
g6
sg23
g6
sg24
g6
sg25
g6
ssS'BADUM JAMES'
p229
(dp230
g3
g6
sg4
g6
sg5
I178980
sg7
I182466
sg8
g6
sg9
g6
sg10
g6
sg12
g6
sg13
I257817
sg14
g6
sg15
g6
sg16
I257817
sg17
g6
sg18
g6
sg19
g6
sg20
g6
sg21
I00
sg22
g6
sg23
I3486
sg24
g6
sg25
g6
ssS'MCDONALD REBECCA'
p231
(dp232
g3
g6
sg4
I894
sg5
g6
sg7
g6
sg8
g6
sg9
g6
sg10
S'rebecca.mcdonald@enron.com'
p233
sg12
g6
sg13
I1691366
sg14
I720
sg15
g6
sg16
I757301
sg17
I13
sg18
g6
sg19
I54
sg20
I1
sg21
I00
sg22
g6
sg23
g6
sg24
I934065
sg25
g6
ssS'BLACHMAN JEREMY'
p234
(dp235
g3
I248546
sg4
I2475
sg5
g6
sg7
I2014835
sg8
g6
sg9
I850000
sg10
S'jeremy.blachman@enron.com'
p236
sg12
g6
sg13
I954354
sg14
I2326
sg15
I831809
sg16
I765313
sg17
I14
sg18
I272
sg19
I25
sg20
I2
sg21
I00
sg22
g6
sg23
I84208
sg24
I189041
sg25
g6
ssS'HORTON STANLEY'
p237
(dp238
g3
g6
sg4
I2350
sg5
I3131860
sg7
I3131860
sg8
g6
sg9
g6
sg10
S'stanley.horton@enron.com'
p239
sg12
g6
sg13
I7256648
sg14
I1074
sg15
g6
sg16
I5210569
sg17
I1073
sg18
g6
sg19
I44
sg20
I15
sg21
I00
sg22
g6
sg23
g6
sg24
I2046079
sg25
g6
ssS'HANNON KEVIN'
p240
(dp241
g3
I243293
sg4
I1045
sg5
g6
sg7
I288682
sg8
g6
sg9
I1500000
sg10
S'kevin.hannon@enron.com'
p242
sg12
g6
sg13
I6391065
sg14
I1035
sg15
I1617011
sg16
I5538001
sg17
I32
sg18
I11350
sg19
I32
sg20
I21
sg21
I01
sg22
I-3117011
sg23
I34039
sg24
I853064
sg25
g6
ssS'WINOKUR HERBERT'
p243
(dp244
g3
g6
sg4
g6
sg5
g6
sg7
I84992
sg8
g6
sg9
g6
sg10
g6
sg12
g6
sg13
g6
sg14
g6
sg15
g6
sg16
g6
sg17
g6
sg18
g6
sg19
g6
sg20
g6
sg21
I00
sg22
I-25000
sg23
I1413
sg24
g6
sg25
I108579
ssS'GARLAND KEVIN'
p245
(dp246
g3
I231946
sg4
I209
sg5
g6
sg7
I1566469
sg8
g6
sg9
I850000
sg10
S'kevin.garland@enron.com'
p247
sg12
g6
sg13
I896153
sg14
I178
sg15
I375304
sg16
I636246
sg17
I44
sg18
I60814
sg19
I10
sg20
I27
sg21
I00
sg22
g6
sg23
I48405
sg24
I259907
sg25
g6
ssS'GILLIS JOHN'
p248
(dp249
g3
g6
sg4
g6
sg5
g6
sg7
g6
sg8
g6
sg9
g6
sg10
g6
sg12
g6
sg13
I85641
sg14
g6
sg15
g6
sg16
I9803
sg17
g6
sg18
g6
sg19
g6
sg20
g6
sg21
I00
sg22
g6
sg23
g6
sg24
I75838
sg25
g6
ssS'MULLER MARK'
p250
(dp251
g3
I251654
sg4
I136
sg5
I842924
sg7
I3202070
sg8
g6
sg9
I1100000
sg10
S's..muller@enron.com'
p252
sg12
g6
sg13
I1416848
sg14
I114
sg15
I1725545
sg16
I1056320
sg17
I16
sg18
I947
sg19
I12
sg20
I0
sg21
I00
sg22
I-719000
sg23
g6
sg24
I360528
sg25
g6
ssS'DEFFNER JOSEPH'
p253
(dp254
g3
I206121
sg4
I714
sg5
g6
sg7
I1208649
sg8
g6
sg9
I600000
sg10
S'joseph.deffner@enron.com'
p255
sg12
g6
sg13
I159211
sg14
I552
sg15
I335349
sg16
I17378
sg17
I74
sg18
I25553
sg19
I115
sg20
I4
sg21
I00
sg22
g6
sg23
I41626
sg24
I141833
sg25
g6
ssS'BECK SALLY'
p256
(dp257
g3
I231330
sg4
I7315
sg5
g6
sg7
I969068
sg8
g6
sg9
I700000
sg10
S'sally.beck@enron.com'
p258
sg12
g6
sg13
I126027
sg14
I2639
sg15
g6
sg16
g6
sg17
I4343
sg18
I566
sg19
I144
sg20
I386
sg21
I00
sg22
g6
sg23
I37172
sg24
I126027
sg25
g6
ssS'THORN TERENCE'
p259
(dp260
g3
I222093
sg4
I266
sg5
I16586
sg7
I911453
sg8
g6
sg9
g6
sg10
S'terence.thorn@enron.com'
p261
sg12
g6
sg13
I4817796
sg14
I73
sg15
I200000
sg16
I4452476
sg17
I41
sg18
I426629
sg19
I0
sg20
I0
sg21
I00
sg22
g6
sg23
I46145
sg24
I365320
sg25
g6
ssS'HUGHES JAMES'
p262
(dp263
g3
g6
sg4
I719
sg5
g6
sg7
g6
sg8
g6
sg9
g6
sg10
S'james.hughes@enron.com'
p264
sg12
g6
sg13
I1118394
sg14
I589
sg15
g6
sg16
I754966
sg17
I34
sg18
g6
sg19
I35
sg20
I5
sg21
I00
sg22
g6
sg23
g6
sg24
I363428
sg25
g6
ssS'KEAN STEVEN'
p265
(dp266
g3
I404338
sg4
I12754
sg5
g6
sg7
I1747522
sg8
g6
sg9
I1000000
sg10
S'steven.kean@enron.com'
p267
sg12
g6
sg13
I6153642
sg14
I3639
sg15
I300000
sg16
I2022048
sg17
I6759
sg18
I1231
sg19
I140
sg20
I387
sg21
I00
sg22
g6
sg23
I41953
sg24
I4131594
sg25
g6
ssS'KOENIG MARK'
p268
(dp269
g3
I309946
sg4
I2374
sg5
g6
sg7
I1587421
sg8
g6
sg9
I700000
sg10
S'mark.koenig@enron.com'
p270
sg12
g6
sg13
I1920055
sg14
I2271
sg15
I300000
sg16
I671737
sg17
I61
sg18
I150458
sg19
I53
sg20
I15
sg21
I01
sg22
g6
sg23
I127017
sg24
I1248318
sg25
g6
ssS'SKILLING JEFFREY'
p271
(dp272
g3
I1111258
sg4
I3627
sg5
g6
sg7
I8682716
sg8
g6
sg9
I5600000
sg10
S'jeff.skilling@enron.com'
p273
sg12
g6
sg13
I26093672
sg14
I2042
sg15
I1920000
sg16
I19250000
sg17
I108
sg18
I22122
sg19
I88
sg20
I30
sg21
I01
sg22
g6
sg23
I29336
sg24
I6843672
sg25
g6
ssS'LEFF DANIEL'
p274
(dp275
g3
I273746
sg4
I2822
sg5
g6
sg7
I2664228
sg8
g6
sg9
I1000000
sg10
S'dan.leff@enron.com'
p276
sg12
g6
sg13
I360528
sg14
I2672
sg15
I1387399
sg16
g6
sg17
I63
sg18
I3083
sg19
I67
sg20
I14
sg21
I00
sg22
g6
sg23
g6
sg24
I360528
sg25
g6
ssS'SHERRIFF JOHN'
p277
(dp278
g3
I428780
sg4
I3187
sg5
g6
sg7
I4335388
sg8
g6
sg9
I1500000
sg10
S'john.sherriff@enron.com'
p279
sg12
g6
sg13
I3128982
sg14
I2103
sg15
I554422
sg16
I1835558
sg17
I92
sg18
I1852186
sg19
I28
sg20
I23
sg21
I00
sg22
g6
sg23
g6
sg24
I1293424
sg25
g6
ssS'HAEDICKE MARK'
p280
(dp281
g3
I374125
sg4
I4009
sg5
I2157527
sg7
I3859065
sg8
g6
sg9
I1150000
sg10
S'mark.haedicke@enron.com'
p282
sg12
I-329825
sg13
I803094
sg14
I1847
sg15
I983346
sg16
I608750
sg17
I1941
sg18
I52382
sg19
I180
sg20
I61
sg21
I00
sg22
I-934484
sg23
I76169
sg24
I524169
sg25
g6
ssS'DERRICK JAMES'
p283
(dp284
g3
I492375
sg4
I2181
sg5
g6
sg7
I550981
sg8
g6
sg9
I800000
sg10
S'james.derrick@enron.com'
p285
sg12
I-1787380
sg13
I8831913
sg14
I1401
sg15
I484000
sg16
I8831913
sg17
I909
sg18
I7482
sg19
I64
sg20
I20
sg21
I00
sg22
I-1284000
sg23
I51124
sg24
I1787380
sg25
g6
ssS'BAZELIDES PHILIP'
p286
(dp287
g3
I80818
sg4
g6
sg5
I684694
sg7
I860136
sg8
g6
sg9
g6
sg10
g6
sg12
g6
sg13
I1599641
sg14
g6
sg15
I93750
sg16
I1599641
sg17
g6
sg18
I874
sg19
g6
sg20
g6
sg21
I00
sg22
g6
sg23
g6
sg24
g6
sg25
g6
ssS'COX DAVID'
p288
(dp289
g3
I314288
sg4
I102
sg5
g6
sg7
I1101393
sg8
g6
sg9
I800000
sg10
S'chip.cox@enron.com'
p290
sg12
g6
sg13
I495633
sg14
I71
sg15
g6
sg16
I117551
sg17
I33
sg18
I494
sg19
I0
sg20
I4
sg21
I00
sg22
I-41250
sg23
I27861
sg24
I378082
sg25
g6
ssS'BELDEN TIMOTHY'
p291
(dp292
g3
I213999
sg4
I7991
sg5
I2144013
sg7
I5501630
sg8
g6
sg9
I5249999
sg10
S'tim.belden@enron.com'
p293
sg12
g6
sg13
I1110705
sg14
I5521
sg15
g6
sg16
I953136
sg17
I484
sg18
I210698
sg19
I228
sg20
I108
sg21
I01
sg22
I-2334434
sg23
I17355
sg24
I157569
sg25
g6
ssS'STABLER FRANK'
p294
(dp295
g3
I239502
sg4
g6
sg5
g6
sg7
I1112087
sg8
g6
sg9
I500000
sg10
S'frank.stabler@enron.com'
p296
sg12
g6
sg13
I511734
sg14
g6
sg15
g6
sg16
g6
sg17
g6
sg18
I356071
sg19
g6
sg20
g6
sg21
I00
sg22
g6
sg23
I16514
sg24
I511734
sg25
g6
ssS'PIPER GREGORY'
p297
(dp298
g3
I197091
sg4
I1238
sg5
I1130036
sg7
I1737629
sg8
g6
sg9
I400000
sg10
S'greg.piper@enron.com'
p299
sg12
I-409554
sg13
I880290
sg14
I742
sg15
g6
sg16
I880290
sg17
I222
sg18
I778
sg19
I61
sg20
I48
sg21
I00
sg22
I-33333
sg23
I43057
sg24
I409554
sg25
g6
ssS'DONAHUE JEFFREY'
p300
(dp301
g3
I278601
sg4
I865
sg5
g6
sg7
I875760
sg8
g6
sg9
I800000
sg10
S'jeff.donahue@enron.com'
p302
sg12
g6
sg13
I1080988
sg14
I772
sg15
g6
sg16
I765920
sg17
I22
sg18
I891
sg19
I188
sg20
I11
sg21
I00
sg22
I-300000
sg23
I96268
sg24
I315068
sg25
g6
ssS'PRENTICE JAMES'
p303
(dp304
g3
g6
sg4
g6
sg5
I564348
sg7
I564348
sg8
g6
sg9
g6
sg10
S'james.prentice@enron.com'
p305
sg12
g6
sg13
I1095040
sg14
g6
sg15
g6
sg16
I886231
sg17
g6
sg18
g6
sg19
g6
sg20
g6
sg21
I00
sg22
g6
sg23
g6
sg24
I208809
sg25
g6
ssS'GRAY RODNEY'
p306
(dp307
g3
I6615
sg4
g6
sg5
I93585
sg7
I1146658
sg8
g6
sg9
g6
sg10
g6
sg12
g6
sg13
g6
sg14
g6
sg15
I365625
sg16
g6
sg17
g6
sg18
I680833
sg19
g6
sg20
g6
sg21
I00
sg22
g6
sg23
g6
sg24
g6
sg25
g6
ssS'BUCHANAN HAROLD'
p308
(dp309
g3
I248017
sg4
I1088
sg5
g6
sg7
I1054637
sg8
g6
sg9
I500000
sg10
S'john.buchanan@enron.com'
p310
sg12
g6
sg13
I1014505
sg14
I23
sg15
I304805
sg16
I825464
sg17
I125
sg18
I1215
sg19
I0
sg20
I0
sg21
I00
sg22
g6
sg23
I600
sg24
I189041
sg25
g6
ssS'CARTER REBECCA'
p311
(dp312
g3
I261809
sg4
I312
sg5
g6
sg7
I477557
sg8
g6
sg9
I300000
sg10
S'rebecca.carter@enron.com'
p313
sg12
I-307301
sg13
g6
sg14
I196
sg15
I75000
sg16
g6
sg17
I15
sg18
I540
sg19
I29
sg20
I7
sg21
I00
sg22
I-159792
sg23
g6
sg24
I307301
sg25
g6
ssS'FOWLER PEGGY'
p314
(dp315
g3
g6
sg4
I517
sg5
g6
sg7
g6
sg8
g6
sg9
g6
sg10
S'kulvinder.fowler@enron.com'
p316
sg12
g6
sg13
I1884748
sg14
I10
sg15
g6
sg16
I1324578
sg17
I36
sg18
g6
sg19
I0
sg20
I0
sg21
I00
sg22
g6
sg23
g6
sg24
I560170
sg25
g6
ssS'YEAGER SCOTT'
p317
(dp318
g3
I158403
sg4
g6
sg5
g6
sg7
I360300
sg8
g6
sg9
g6
sg10
S'scott.yeager@enron.com'
p319
sg12
g6
sg13
I11884758
sg14
g6
sg15
g6
sg16
I8308552
sg17
g6
sg18
I147950
sg19
g6
sg20
g6
sg21
I01
sg22
g6
sg23
I53947
sg24
I3576206
sg25
g6
ssS'MCCARTY DANNY'
p320
(dp321
g3
g6
sg4
I1433
sg5
g6
sg7
g6
sg8
g6
sg9
g6
sg10
S'danny.mccarty@enron.com'
p322
sg12
g6
sg13
I758931
sg14
I508
sg15
g6
sg16
I664375
sg17
I215
sg18
g6
sg19
I25
sg20
I2
sg21
I00
sg22
g6
sg23
g6
sg24
I94556
sg25
g6
ssS'JAEDICKE ROBERT'
p323
(dp324
g3
g6
sg4
g6
sg5
g6
sg7
I83750
sg8
g6
sg9
g6
sg10
g6
sg12
I-44093
sg13
I431750
sg14
g6
sg15
g6
sg16
I431750
sg17
g6
sg18
g6
sg19
g6
sg20
g6
sg21
I00
sg22
I-25000
sg23
g6
sg24
I44093
sg25
I108750
ssS'BROWN MICHAEL'
p325
(dp326
g3
g6
sg4
I1486
sg5
g6
sg7
I49288
sg8
g6
sg9
g6
sg10
S'michael.brown@enron.com'
p327
sg12
g6
sg13
g6
sg14
I761
sg15
g6
sg16
g6
sg17
I41
sg18
g6
sg19
I13
sg20
I1
sg21
I00
sg22
g6
sg23
I49288
sg24
g6
sg25
g6
ssS'MORAN MICHAEL'
p328
(dp329
g3
g6
sg4
I672
sg5
g6
sg7
g6
sg8
g6
sg9
g6
sg10
S'michael.moran@enron.com'
p330
sg12
g6
sg13
I221141
sg14
I127
sg15
g6
sg16
I59539
sg17
I19
sg18
g6
sg19
I0
sg20
I0
sg21
I00
sg22
g6
sg23
g6
sg24
I161602
sg25
g6
ssS'MCCLELLAN GEORGE'
p331
(dp332
g3
I263413
sg4
I1744
sg5
g6
sg7
I1318763
sg8
g6
sg9
I900000
sg10
S'george.mcclellan@enron.com'
p333
sg12
g6
sg13
I947861
sg14
I1469
sg15
g6
sg16
I506765
sg17
I49
sg18
I51587
sg19
I52
sg20
I0
sg21
I00
sg22
I-125000
sg23
I228763
sg24
I441096
sg25
g6
ssS'REYNOLDS LAWRENCE'
p334
(dp335
g3
I76399
sg4
g6
sg5
I51365
sg7
I394475
sg8
g6
sg9
I100000
sg10
g6
sg12
I-140264
sg13
I4221891
sg14
g6
sg15
I156250
sg16
I4160672
sg17
g6
sg18
I202052
sg19
g6
sg20
g6
sg21
I00
sg22
I-200000
sg23
I8409
sg24
I201483
sg25
g6
ssS'HAUG DAVID'
p336
(dp337
g3
g6
sg4
I573
sg5
g6
sg7
I475
sg8
g6
sg9
g6
sg10
S'david.haug@enron.com'
p338
sg12
g6
sg13
I2217299
sg14
I471
sg15
g6
sg16
g6
sg17
I19
sg18
g6
sg19
I4
sg20
I7
sg21
I00
sg22
g6
sg23
I475
sg24
I2217299
sg25
g6
ssS'YEAP SOON'
p339
(dp340
g3
g6
sg4
g6
sg5
g6
sg7
I55097
sg8
g6
sg9
g6
sg10
g6
sg12
g6
sg13
I192758
sg14
g6
sg15
g6
sg16
I192758
sg17
g6
sg18
g6
sg19
g6
sg20
g6
sg21
I00
sg22
g6
sg23
I55097
sg24
g6
sg25
g6
ssS'TILNEY ELIZABETH'
p341
(dp342
g3
I247338
sg4
I460
sg5
g6
sg7
I399393
sg8
g6
sg9
I300000
sg10
S'elizabeth.tilney@enron.com'
p343
sg12
g6
sg13
I1168042
sg14
I379
sg15
I275000
sg16
I591250
sg17
I19
sg18
I152055
sg19
I10
sg20
I11
sg21
I00
sg22
I-575000
sg23
g6
sg24
I576792
sg25
g6
ssS'REDMOND BRIAN'
p344
(dp345
g3
I96840
sg4
I1671
sg5
g6
sg7
I111529
sg8
g6
sg9
g6
sg10
S'brian.redmond@enron.com'
p346
sg12
g6
sg13
I7890324
sg14
I1063
sg15
g6
sg16
I7509039
sg17
I221
sg18
g6
sg19
I204
sg20
I49
sg21
I00
sg22
g6
sg23
I14689
sg24
I381285
sg25
g6
ssS'KISHKILL JOSEPH'
p347
(dp348
g3
I174246
sg4
g6
sg5
g6
sg7
I704896
sg8
g6
sg9
g6
sg10
S'joe.kishkill@enron.com'
p349
sg12
g6
sg13
I1034346
sg14
g6
sg15
g6
sg16
g6
sg17
g6
sg18
I465357
sg19
g6
sg20
g6
sg21
I00
sg22
I-51042
sg23
I116335
sg24
I1034346
sg25
g6
ssS'RICE KENNETH'
p350
(dp351
g3
I420636
sg4
I905
sg5
g6
sg7
I505050
sg8
g6
sg9
I1750000
sg10
S'ken.rice@enron.com'
p352
sg12
g6
sg13
I22542539
sg14
I864
sg15
I1617011
sg16
I19794175
sg17
I18
sg18
I174839
sg19
I42
sg20
I4
sg21
I01
sg22
I-3504386
sg23
I46950
sg24
I2748364
sg25
g6
ssS'DODSON KEITH'
p353
(dp354
g3
I221003
sg4
I176
sg5
g6
sg7
I319941
sg8
g6
sg9
I70000
sg10
S'keith.dodson@enron.com'
p355
sg12
g6
sg13
g6
sg14
I114
sg15
g6
sg16
g6
sg17
I14
sg18
I774
sg19
I10
sg20
I3
sg21
I00
sg22
g6
sg23
I28164
sg24
g6
sg25
g6
ssS'RIEKER PAULA'
p356
(dp357
g3
I249201
sg4
I1328
sg5
I214678
sg7
I1099100
sg8
g6
sg9
I700000
sg10
S'paula.rieker@enron.com'
p358
sg12
g6
sg13
I1918887
sg14
I1258
sg15
g6
sg16
I1635238
sg17
I82
sg18
I1950
sg19
I35
sg20
I48
sg21
I01
sg22
I-100000
sg23
I33271
sg24
I283649
sg25
g6
ssS'HIRKO JOSEPH'
p359
(dp360
g3
g6
sg4
g6
sg5
I10259
sg7
I91093
sg8
g6
sg9
g6
sg10
S'joe.hirko@enron.com'
p361
sg12
g6
sg13
I30766064
sg14
g6
sg15
g6
sg16
I30766064
sg17
g6
sg18
I2856
sg19
g6
sg20
g6
sg21
I01
sg22
g6
sg23
I77978
sg24
g6
sg25
g6
ssS'DIMICHELE RICHARD'
p362
(dp363
g3
I262788
sg4
g6
sg5
g6
sg7
I2368151
sg8
g6
sg9
I1000000
sg10
S'richard.dimichele@enron.com'
p364
sg12
g6
sg13
I8317782
sg14
g6
sg15
I694862
sg16
I8191755
sg17
g6
sg18
I374689
sg19
g6
sg20
g6
sg21
I00
sg22
g6
sg23
I35812
sg24
I126027
sg25
g6
ssS'HAYES ROBERT'
p365
(dp366
g3
g6
sg4
I504
sg5
I7961
sg7
I7961
sg8
g6
sg9
g6
sg10
S'robert.hayes@enron.com'
p367
sg12
g6
sg13
I151418
sg14
I50
sg15
g6
sg16
g6
sg17
I12
sg18
g6
sg19
I16
sg20
I0
sg21
I00
sg22
g6
sg23
g6
sg24
I151418
sg25
g6
ssS'KAMINSKI WINCENTY'
p368
(dp369
g3
I275101
sg4
I4607
sg5
g6
sg7
I1086821
sg8
g6
sg9
I400000
sg10
S'vince.kaminski@enron.com'
p370
sg12
g6
sg13
I976037
sg14
I583
sg15
I323466
sg16
I850010
sg17
I14368
sg18
I4669
sg19
I41
sg20
I171
sg21
I00
sg22
g6
sg23
I83585
sg24
I126027
sg25
g6
ssS'BUTTS ROBERT'
p371
(dp372
g3
I261516
sg4
g6
sg5
g6
sg7
I1271582
sg8
g6
sg9
I750000
sg10
S'bob.butts@enron.com'
p373
sg12
g6
sg13
I417619
sg14
g6
sg15
I175000
sg16
g6
sg17
g6
sg18
I150656
sg19
g6
sg20
g6
sg21
I00
sg22
I-75000
sg23
I9410
sg24
I417619
sg25
g6
ssS'CALGER CHRISTOPHER'
p374
(dp375
g3
I240189
sg4
I2598
sg5
g6
sg7
I1639297
sg8
g6
sg9
I1250000
sg10
S'christopher.calger@enron.com'
p376
sg12
g6
sg13
I126027
sg14
I2188
sg15
I375304
sg16
g6
sg17
I144
sg18
I486
sg19
I199
sg20
I25
sg21
I01
sg22
I-262500
sg23
I35818
sg24
I126027
sg25
g6
ssS'BOWEN RAYMOND'
p377
(dp378
g3
I278601
sg4
I1858
sg5
g6
sg7
I2669589
sg8
g6
sg9
I1350000
sg10
S'raymond.bowen@enron.com'
p379
sg12
g6
sg13
I252055
sg14
I1593
sg15
I974293
sg16
g6
sg17
I27
sg18
I1621
sg19
I140
sg20
I15
sg21
I01
sg22
I-833
sg23
I65907
sg24
I252055
sg25
g6
ssS'URQUHART JOHN'
p380
(dp381
g3
g6
sg4
g6
sg5
g6
sg7
I228656
sg8
g6
sg9
g6
sg10
g6
sg12
g6
sg13
g6
sg14
g6
sg15
g6
sg16
g6
sg17
g6
sg18
g6
sg19
g6
sg20
g6
sg21
I00
sg22
I-36666
sg23
I228656
sg24
g6
sg25
I36666
ssS'FITZGERALD JAY'
p382
(dp383
g3
I199157
sg4
I936
sg5
g6
sg7
I1414857
sg8
g6
sg9
I350000
sg10
S'jay.fitzgerald@enron.com'
p384
sg12
g6
sg13
I1621236
sg14
I723
sg15
I556416
sg16
I664461
sg17
I16
sg18
I285414
sg19
I1
sg20
I8
sg21
I00
sg22
g6
sg23
I23870
sg24
I956775
sg25
g6
ssS'GRAMM WENDY'
p385
(dp386
g3
g6
sg4
g6
sg5
g6
sg7
I119292
sg8
g6
sg9
g6
sg10
g6
sg12
g6
sg13
g6
sg14
g6
sg15
g6
sg16
g6
sg17
g6
sg18
g6
sg19
g6
sg20
g6
sg21
I00
sg22
g6
sg23
g6
sg24
g6
sg25
I119292
ssS'CLINE KENNETH'
p387
(dp388
g3
g6
sg4
g6
sg5
g6
sg7
g6
sg8
g6
sg9
g6
sg10
g6
sg12
I-472568
sg13
I189518
sg14
g6
sg15
g6
sg16
g6
sg17
g6
sg18
g6
sg19
g6
sg20
g6
sg21
I00
sg22
g6
sg23
g6
sg24
I662086
sg25
g6
ssS'SCRIMSHAW MATTHEW'
p389
(dp390
g3
g6
sg4
g6
sg5
g6
sg7
g6
sg8
g6
sg9
g6
sg10
S'matthew.scrimshaw@enron.com'
p391
sg12
g6
sg13
I759557
sg14
g6
sg15
g6
sg16
I759557
sg17
g6
sg18
g6
sg19
g6
sg20
g6
sg21
I00
sg22
g6
sg23
g6
sg24
g6
sg25
g6
ssS'SAVAGE FRANK'
p392
(dp393
g3
g6
sg4
g6
sg5
g6
sg7
I3750
sg8
g6
sg9
g6
sg10
g6
sg12
g6
sg13
g6
sg14
g6
sg15
g6
sg16
g6
sg17
g6
sg18
g6
sg19
g6
sg20
g6
sg21
I00
sg22
I-121284
sg23
g6
sg24
g6
sg25
I125034
ssS'SHANKMAN JEFFREY'
p394
(dp395
g3
I304110
sg4
I3221
sg5
g6
sg7
I3038702
sg8
g6
sg9
I2000000
sg10
S'jeffrey.shankman@enron.com'
p396
sg12
g6
sg13
I2072035
sg14
I1730
sg15
I554422
sg16
I1441898
sg17
I2681
sg18
I1191
sg19
I94
sg20
I83
sg21
I00
sg22
g6
sg23
I178979
sg24
I630137
sg25
g6
ssS'ECHOLS JOHN'
p397
(dp398
g3
I182245
sg4
g6
sg5
g6
sg7
I2692324
sg8
g6
sg9
I200000
sg10
S'john.echols@enron.com'
p399
sg12
g6
sg13
I1008941
sg14
g6
sg15
I2234774
sg16
I601438
sg17
g6
sg18
I53775
sg19
g6
sg20
g6
sg21
I00
sg22
g6
sg23
I21530
sg24
I407503
sg25
g6
ssS'CORDES WILLIAM'
p400
(dp401
g3
g6
sg4
I764
sg5
g6
sg7
g6
sg8
g6
sg9
g6
sg10
S'bill.cordes@enron.com'
p402
sg12
g6
sg13
I1038185
sg14
I58
sg15
g6
sg16
I651850
sg17
I12
sg18
g6
sg19
I10
sg20
I0
sg21
I00
sg22
g6
sg23
g6
sg24
I386335
sg25
g6
ssS'WESTFAHL RICHARD'
p403
(dp404
g3
I63744
sg4
g6
sg5
g6
sg7
I762135
sg8
g6
sg9
g6
sg10
S'dick.westfahl@enron.com'
p405
sg12
g6
sg13
I384930
sg14
g6
sg15
I256191
sg16
g6
sg17
g6
sg18
I401130
sg19
g6
sg20
g6
sg21
I00
sg22
I-10800
sg23
I51870
sg24
I384930
sg25
g6
ssS'MEYER JEROME'
p406
(dp407
g3
g6
sg4
g6
sg5
g6
sg7
I2151
sg8
g6
sg9
g6
sg10
g6
sg12
g6
sg13
g6
sg14
g6
sg15
g6
sg16
g6
sg17
g6
sg18
g6
sg19
g6
sg20
g6
sg21
I00
sg22
I-38346
sg23
I2151
sg24
g6
sg25
I38346
ssS'NOLES JAMES'
p408
(dp409
g3
g6
sg4
g6
sg5
I774401
sg7
I774401
sg8
g6
sg9
g6
sg10
g6
sg12
I-94556
sg13
I368705
sg14
g6
sg15
g6
sg16
g6
sg17
g6
sg18
g6
sg19
g6
sg20
g6
sg21
I00
sg22
g6
sg23
g6
sg24
I463261
sg25
g6
ssS'GLISAN BEN'
p410
(dp411
g3
I274975
sg4
I873
sg5
g6
sg7
I1272284
sg8
g6
sg9
I600000
sg10
S'ben.glisan@enron.com'
p412
sg12
g6
sg13
I778546
sg14
I874
sg15
I71023
sg16
I384728
sg17
I16
sg18
I200308
sg19
I52
sg20
I6
sg21
I01
sg22
g6
sg23
I125978
sg24
I393818
sg25
g6
ssS'BLAKE NORMAN'
p413
(dp414
g3
g6
sg4
g6
sg5
g6
sg7
I1279
sg8
g6
sg9
g6
sg10
g6
sg12
g6
sg13
g6
sg14
g6
sg15
g6
sg16
g6
sg17
g6
sg18
g6
sg19
g6
sg20
g6
sg21
I00
sg22
I-113784
sg23
I1279
sg24
g6
sg25
I113784
ss.