(dp0
S'METTS MARK'
p1
(dp2
S'bonus'
p3
I600000
sS'exercised_stock_options'
p4
S'NaN'
p5
sS'expenses'
p6
I94299
sS'salary'
p7
I365788
sS'poi'
p8
I00
ssS'ELLIOTT STEVEN'
p9
(dp10
g3
I350000
sg4
I4890344
sg6
I78552
sg7
I170941
sg8
I00
ssS'DETMERING TIMOTHY'
p11
(dp12
g3
I425000
sg4
I2027865
sg6
I52255
sg7
I210500
sg8
I00
ssS'MCMAHON JEFFREY'
p13
(dp14
g3
I2600000
sg4
I1104054
sg6
I137108
sg7
I370448
sg8
I00
ssS'LINDHOLM TOD'
p15
(dp16
g3
I200000
sg4
I2549361
sg6
I57727
sg7
I236457
sg8
I00
ssS'FUGH JOHN'
p17
(dp18
g3
g5
sg4
I176378
sg6
g5
sg7
g5
sg8
I00
ssS'DIETRICH JANET'
p19
(dp20
g3
I600000
sg4
I1550019
sg6
I3475
sg7
I250100
sg8
I00
ssS'SUNDE MARTIN'
p21
(dp22
g3
I700000
sg4
g5
sg6
g5
sg7
I257486
sg8
I00
ssS'FASTOW ANDREW'
p23
(dp24
g3
I1300000
sg4
g5
sg6
I55921
sg7
I440698
sg8
I01
ssS'COLWELL WESLEY'
p25
(dp26
g3
I1200000
sg4
g5
sg6
I16514
sg7
I288542
sg8
I01
ssS'MORDAUNT KRISTINA'
p27
(dp28
g3
I325000
sg4
g5
sg6
I35018
sg7
I267093
sg8
I00
ssS'BANNANTINE JAMES'
p29
(dp30
g3
g5
sg4
I4046157
sg6
I56301
sg7
I477
sg8
I00
ssS'GAHN ROBERT'
p31
(dp32
g3
I509870
sg4
I83237
sg6
I50080
sg7
I192008
sg8
I00
ssS'FALLON JAMES'
p33
(dp34
g3
I2500000
sg4
I940257
sg6
I95924
sg7
I304588
sg8
I00
ssS'KITCHEN LOUISE'
p35
(dp36
g3
I3100000
sg4
I81042
sg6
I5774
sg7
I271442
sg8
I00
ssS'PRENTICE JAMES'
p37
(dp38
g3
g5
sg4
I886231
sg6
g5
sg7
g5
sg8
I00
ssS'BERGSIEKER RICHARD'
p39
(dp40
g3
I250000
sg4
g5
sg6
I59175
sg7
I187922
sg8
I00
ssS'DURAN WILLIAM'
p41
(dp42
g3
I750000
sg4
I1451869
sg6
I25785
sg7
I210692
sg8
I00
ssS'OLSON CINDY'
p43
(dp44
g3
I750000
sg4
I1637034
sg6
I63791
sg7
I329078
sg8
I00
ssS'BAXTER JOHN'
p45
(dp46
g3
I1200000
sg4
I6680544
sg6
I11200
sg7
I267102
sg8
I00
ssS'HICKERSON GARY'
p47
(dp48
g3
I1700000
sg4
g5
sg6
I98849
sg7
I211788
sg8
I00
ssS'BIBI PHILIPPE'
p49
(dp50
g3
I1000000
sg4
I1465734
sg6
I38559
sg7
I213625
sg8
I00
ssS'LAY KENNETH'
p51
(dp52
g3
I7000000
sg4
I34348384
sg6
I99832
sg7
I1072321
sg8
I01
ssS'MEYER ROCKFORD'
p53
(dp54
g3
g5
sg4
I493489
sg6
g5
sg7
g5
sg8
I00
ssS'YEAGER SCOTT'
p55
(dp56
g3
g5
sg4
I8308552
sg6
I53947
sg7
I158403
sg8
I01
ssS'WHITE THOMAS'
p57
(dp58
g3
I450000
sg4
I1297049
sg6
I81353
sg7
I317543
sg8
I00
ssS'CAUSEY RICHARD'
p59
(dp60
g3
I1000000
sg4
g5
sg6
I30674
sg7
I415189
sg8
I01
ssS'HERMANN ROBERT'
p61
(dp62
g3
I700000
sg4
I187500
sg6
I48357
sg7
I262663
sg8
I00
ssS'MENDELSOHN JOHN'
p63
(dp64
g3
g5
sg4
g5
sg6
I148
sg7
g5
sg8
I00
ssS'IZZO LAWRENCE'
p65
(dp66
g3
g5
sg4
I2165172
sg6
I28093
sg7
I85274
sg8
I00
ssS'DELAINEY DAVID'
p67
(dp68
g3
I3000000
sg4
I2291113
sg6
I86174
sg7
I365163
sg8
I01
ssS'SHERRICK JEFFREY'
p69
(dp70
g3
g5
sg4
I1426469
sg6
g5
sg7
g5
sg8
I00
ssS'GATHMANN WILLIAM'
p71
(dp72
g3
g5
sg4
I1753766
sg6
g5
sg7
g5
sg8
I00
ssS'SHAPIRO RICHARD'
p73
(dp74
g3
I650000
sg4
I607837
sg6
I137767
sg7
I269076
sg8
I00
ssS'PAI LOU'
p75
(dp76
g3
I1000000
sg4
I15364167
sg6
I32047
sg7
I261879
sg8
I00
ssS'LEWIS RICHARD'
p77
(dp78
g3
g5
sg4
I850477
sg6
g5
sg7
g5
sg8
I00
ssS'PEREIRA PAULO FERRAZ'
p79
(dp80
g3
g5
sg4
g5
sg6
I27942
sg7
g5
sg8
I00
ssS'WHALEY DAVID'
p81
(dp82
g3
g5
sg4
I98718
sg6
g5
sg7
g5
sg8
I00
ssS'DUNCAN JOHN'
p83
(dp84
g3
g5
sg4
I371750
sg6
g5
sg7
g5
sg8
I00
ssS'CHRISTODOULOU DIOMEDES'
p85
(dp86
g3
g5
sg4
I5127155
sg6
g5
sg7
g5
sg8
I00
ssS'BERBERIAN DAVID'
p87
(dp88
g3
g5
sg4
I1624396
sg6
I11892
sg7
I216582
sg8
I00
ssS'GIBBS DANA'
p89
(dp90
g3
g5
sg4
I2218275
sg6
g5
sg7
g5
sg8
I00
ssS'HUMPHREY GENE'
p91
(dp92
g3
g5
sg4
I2282768
sg6
I4994
sg7
I130724
sg8
I00
ssS'WAKEHAM JOHN'
p93
(dp94
g3
g5
sg4
g5
sg6
I103773
sg7
g5
sg8
I00
ssS'KOPPER MICHAEL'
p95
(dp96
g3
I800000
sg4
g5
sg6
I118134
sg7
I224305
sg8
I01
ssS'GOLD JOSEPH'
p97
(dp98
g3
I750000
sg4
I436515
sg6
g5
sg7
I272880
sg8
I00
ssS'MCCONNELL MICHAEL'
p99
(dp100
g3
I1100000
sg4
I1623010
sg6
I81364
sg7
I365038
sg8
I00
ssS'UMANOFF ADAM'
p101
(dp102
g3
I788750
sg4
g5
sg6
I53122
sg7
I288589
sg8
I00
ssS'MEYER JEROME'
p103
(dp104
g3
g5
sg4
g5
sg6
I2151
sg7
g5
sg8
I00
ssS'FREVERT MARK'
p105
(dp106
g3
I2000000
sg4
I10433518
sg6
I86987
sg7
I1060932
sg8
I00
ssS'SHELBY REX'
p107
(dp108
g3
I200000
sg4
I1624396
sg6
I22884
sg7
I211844
sg8
I01
ssS'MURRAY JULIA'
p109
(dp110
g3
I400000
sg4
I400478
sg6
I57580
sg7
I229284
sg8
I00
ssS'LAVORATO JOHN'
p111
(dp112
g3
I8000000
sg4
I4158995
sg6
I49537
sg7
I339288
sg8
I00
ssS'LEMAISTRE CHARLES'
p113
(dp114
g3
g5
sg4
I412878
sg6
g5
sg7
g5
sg8
I00
ssS'MARTIN AMANDA'
p115
(dp116
g3
g5
sg4
I2070306
sg6
I8211
sg7
I349487
sg8
I00
ssS'ALLEN PHILLIP'
p117
(dp118
g3
I4175000
sg4
I1729541
sg6
I13868
sg7
I201955
sg8
I00
ssS'SHARP VICTORIA'
p119
(dp120
g3
I600000
sg4
I281073
sg6
I116337
sg7
I248146
sg8
I00
ssS'WALTERS GARETH'
p121
(dp122
g3
g5
sg4
I1030329
sg6
I33785
sg7
g5
sg8
I00
ssS'SKILLING JEFFREY'
p123
(dp124
g3
I5600000
sg4
I19250000
sg6
I29336
sg7
I1111258
sg8
I01
ssS'JACKSON CHARLENE'
p125
(dp126
g3
I250000
sg4
I185063
sg6
I10181
sg7
I288558
sg8
I00
ssS'OVERDYKE JERE'
p127
(dp128
g3
g5
sg4
I5266578
sg6
I18834
sg7
I94941
sg8
I00
ssS'WHALLEY LAWRENCE'
p129
(dp130
g3
I3000000
sg4
I3282960
sg6
I57838
sg7
I510364
sg8
I00
ssS'TAYLOR MITCHELL'
p131
(dp132
g3
I600000
sg4
I3181250
sg6
g5
sg7
I265214
sg8
I00
ssS'PICKERING MARK'
p133
(dp134
g3
I300000
sg4
I28798
sg6
I31653
sg7
I655037
sg8
I00
ssS'WALLS ROBERT'
p135
(dp136
g3
I850000
sg4
I4346544
sg6
I50936
sg7
I357091
sg8
I00
ssS'SULLIVAN-SHAKLOVITZ COLLEEN'
p137
(dp138
g3
I100000
sg4
I1362375
sg6
g5
sg7
I162779
sg8
I00
ssS'WROBEL BRUCE'
p139
(dp140
g3
g5
sg4
I139130
sg6
g5
sg7
g5
sg8
I00
ssS'FOY JOE'
p141
(dp142
g3
g5
sg4
I343434
sg6
g5
sg7
g5
sg8
I00
ssS'BADUM JAMES'
p143
(dp144
g3
g5
sg4
I257817
sg6
I3486
sg7
g5
sg8
I00
ssS'MCDONALD REBECCA'
p145
(dp146
g3
g5
sg4
I757301
sg6
g5
sg7
g5
sg8
I00
ssS'BLACHMAN JEREMY'
p147
(dp148
g3
I850000
sg4
I765313
sg6
I84208
sg7
I248546
sg8
I00
ssS'HORTON STANLEY'
p149
(dp150
g3
g5
sg4
I5210569
sg6
g5
sg7
g5
sg8
I00
ssS'HANNON KEVIN'
p151
(dp152
g3
I1500000
sg4
I5538001
sg6
I34039
sg7
I243293
sg8
I01
ssS'WINOKUR HERBERT'
p153
(dp154
g3
g5
sg4
g5
sg6
I1413
sg7
g5
sg8
I00
ssS'GARLAND KEVIN'
p155
(dp156
g3
I850000
sg4
I636246
sg6
I48405
sg7
I231946
sg8
I00
ssS'GILLIS JOHN'
p157
(dp158
g3
g5
sg4
I9803
sg6
g5
sg7
g5
sg8
I00
ssS'MULLER MARK'
p159
(dp160
g3
I1100000
sg4
I1056320
sg6
g5
sg7
I251654
sg8
I00
ssS'DEFFNER JOSEPH'
p161
(dp162
g3
I600000
sg4
I17378
sg6
I41626
sg7
I206121
sg8
I00
ssS'BECK SALLY'
p163
(dp164
g3
I700000
sg4
g5
sg6
I37172
sg7
I231330
sg8
I00
ssS'THORN TERENCE'
p165
(dp166
g3
g5
sg4
I4452476
sg6
I46145
sg7
I222093
sg8
I00
ssS'HUGHES JAMES'
p167
(dp168
g3
g5
sg4
I754966
sg6
g5
sg7
g5
sg8
I00
ssS'KEAN STEVEN'
p169
(dp170
g3
I1000000
sg4
I2022048
sg6
I41953
sg7
I404338
sg8
I00
ssS'KOENIG MARK'
p171
(dp172
g3
I700000
sg4
I671737
sg6
I127017
sg7
I309946
sg8
I01
ssS'LOWRY CHARLES'
p173
(dp174
g3
g5
sg4
I372205
sg6
g5
sg7
g5
sg8
I00
ssS'LEFF DANIEL'
p175
(dp176
g3
I1000000
sg4
g5
sg6
g5
sg7
I273746
sg8
I00
ssS'SHERRIFF JOHN'
p177
(dp178
g3
I1500000
sg4
I1835558
sg6
g5
sg7
I428780
sg8
I00
ssS'HAEDICKE MARK'
p179
(dp180
g3
I1150000
sg4
I608750
sg6
I76169
sg7
I374125
sg8
I00
ssS'DERRICK JAMES'
p181
(dp182
g3
I800000
sg4
I8831913
sg6
I51124
sg7
I492375
sg8
I00
ssS'BAZELIDES PHILIP'
p183
(dp184
g3
g5
sg4
I1599641
sg6
g5
sg7
I80818
sg8
I00
ssS'COX DAVID'
p185
(dp186
g3
I800000
sg4
I117551
sg6
I27861
sg7
I314288
sg8
I00
ssS'BELDEN TIMOTHY'
p187
(dp188
g3
I5249999
sg4
I953136
sg6
I17355
sg7
I213999
sg8
I01
ssS'STABLER FRANK'
p189
(dp190
g3
I500000
sg4
g5
sg6
I16514
sg7
I239502
sg8
I00
ssS'PIPER GREGORY'
p191
(dp192
g3
I400000
sg4
I880290
sg6
I43057
sg7
I197091
sg8
I00
ssS'DONAHUE JEFFREY'
p193
(dp194
g3
I800000
sg4
I765920
sg6
I96268
sg7
I278601
sg8
I00
ssS'GRAY RODNEY'
p195
(dp196
g3
g5
sg4
g5
sg6
g5
sg7
I6615
sg8
I00
ssS'BUCHANAN HAROLD'
p197
(dp198
g3
I500000
sg4
I825464
sg6
I600
sg7
I248017
sg8
I00
ssS'CARTER REBECCA'
p199
(dp200
g3
I300000
sg4
g5
sg6
g5
sg7
I261809
sg8
I00
ssS'FOWLER PEGGY'
p201
(dp202
g3
g5
sg4
I1324578
sg6
g5
sg7
g5
sg8
I00
ssS'WASAFF GEORGE'
p203
(dp204
g3
I325000
sg4
I1668260
sg6
g5
sg7
I259996
sg8
I00
ssS'MCCARTY DANNY'
p205
(dp206
g3
g5
sg4
I664375
sg6
g5
sg7
g5
sg8
I00
ssS'BAY FRANKLIN'
p207
(dp208
g3
I400000
sg4
g5
sg6
I129142
sg7
I239671
sg8
I00
ssS'JAEDICKE ROBERT'
p209
(dp210
g3
g5
sg4
I431750
sg6
g5
sg7
g5
sg8
I00
ssS'BROWN MICHAEL'
p211
(dp212
g3
g5
sg4
g5
sg6
I49288
sg7
g5
sg8
I00
ssS'MORAN MICHAEL'
p213
(dp214
g3
g5
sg4
I59539
sg6
g5
sg7
g5
sg8
I00
ssS'MCCLELLAN GEORGE'
p215
(dp216
g3
I900000
sg4
I506765
sg6
I228763
sg7
I263413
sg8
I00
ssS'REYNOLDS LAWRENCE'
p217
(dp218
g3
I100000
sg4
I4160672
sg6
I8409
sg7
I76399
sg8
I00
ssS'HAUG DAVID'
p219
(dp220
g3
g5
sg4
g5
sg6
I475
sg7
g5
sg8
I00
ssS'YEAP SOON'
p221
(dp222
g3
g5
sg4
I192758
sg6
I55097
sg7
g5
sg8
I00
ssS'TILNEY ELIZABETH'
p223
(dp224
g3
I300000
sg4
I591250
sg6
g5
sg7
I247338
sg8
I00
ssS'REDMOND BRIAN'
p225
(dp226
g3
g5
sg4
I7509039
sg6
I14689
sg7
I96840
sg8
I00
ssS'KISHKILL JOSEPH'
p227
(dp228
g3
g5
sg4
g5
sg6
I116335
sg7
I174246
sg8
I00
ssS'RICE KENNETH'
p229
(dp230
g3
I1750000
sg4
I19794175
sg6
I46950
sg7
I420636
sg8
I01
ssS'DODSON KEITH'
p231
(dp232
g3
I70000
sg4
g5
sg6
I28164
sg7
I221003
sg8
I00
ssS'RIEKER PAULA'
p233
(dp234
g3
I700000
sg4
I1635238
sg6
I33271
sg7
I249201
sg8
I01
ssS'HIRKO JOSEPH'
p235
(dp236
g3
g5
sg4
I30766064
sg6
I77978
sg7
g5
sg8
I01
ssS'DIMICHELE RICHARD'
p237
(dp238
g3
I1000000
sg4
I8191755
sg6
I35812
sg7
I262788
sg8
I00
ssS'KAMINSKI WINCENTY'
p239
(dp240
g3
I400000
sg4
I850010
sg6
I83585
sg7
I275101
sg8
I00
ssS'BUTTS ROBERT'
p241
(dp242
g3
I750000
sg4
g5
sg6
I9410
sg7
I261516
sg8
I00
ssS'CALGER CHRISTOPHER'
p243
(dp244
g3
I1250000
sg4
g5
sg6
I35818
sg7
I240189
sg8
I01
ssS'BLAKE NORMAN'
p245
(dp246
g3
g5
sg4
g5
sg6
I1279
sg7
g5
sg8
I00
ssS'URQUHART JOHN'
p247
(dp248
g3
g5
sg4
g5
sg6
I228656
sg7
g5
sg8
I00
ssS'FITZGERALD JAY'
p249
(dp250
g3
I350000
sg4
I664461
sg6
I23870
sg7
I199157
sg8
I00
ssS'BUY RICHARD'
p251
(dp252
g3
I900000
sg4
I2542813
sg6
g5
sg7
I330546
sg8
I00
ssS'SCRIMSHAW MATTHEW'
p253
(dp254
g3
g5
sg4
I759557
sg6
g5
sg7
g5
sg8
I00
ssS'SHANKMAN JEFFREY'
p255
(dp256
g3
I2000000
sg4
I1441898
sg6
I178979
sg7
I304110
sg8
I00
ssS'ECHOLS JOHN'
p257
(dp258
g3
I200000
sg4
I601438
sg6
I21530
sg7
I182245
sg8
I00
ssS'CORDES WILLIAM'
p259
(dp260
g3
g5
sg4
I651850
sg6
g5
sg7
g5
sg8
I00
ssS'WESTFAHL RICHARD'
p261
(dp262
g3
g5
sg4
g5
sg6
I51870
sg7
I63744
sg8
I00
ssS'CUMBERLAND MICHAEL'
p263
(dp264
g3
I325000
sg4
g5
sg6
I22344
sg7
I184899
sg8
I00
ssS'GLISAN BEN'
p265
(dp266
g3
I600000
sg4
I384728
sg6
I125978
sg7
I274975
sg8
I01
ssS'BOWEN RAYMOND'
p267
(dp268
g3
I1350000
sg4
g5
sg6
I65907
sg7
I278601
sg8
I01
ss.